ARM GAS  C:\Users\ekatr\AppData\Local\Temp\ccGN8Gn8.s 			page 1


   1              		.syntax unified
   2              		.cpu cortex-m3
   3              		.fpu softvfp
   4              		.eabi_attribute 20, 1
   5              		.eabi_attribute 21, 1
   6              		.eabi_attribute 23, 3
   7              		.eabi_attribute 24, 1
   8              		.eabi_attribute 25, 1
   9              		.eabi_attribute 26, 1
  10              		.eabi_attribute 30, 1
  11              		.eabi_attribute 34, 1
  12              		.eabi_attribute 18, 4
  13              		.thumb
  14              		.syntax unified
  15              		.file	"main.c"
  16              		.text
  17              	.Ltext0:
  18              		.cfi_sections	.debug_frame
  19              		.global	__aeabi_fadd
  20              		.global	__aeabi_d2f
  21              		.section	.text.get_coords,"ax",%progbits
  22              		.align	2
  23              		.global	get_coords
  24              		.thumb
  25              		.thumb_func
  26              		.type	get_coords, %function
  27              	get_coords:
  28              	.LFB66:
  29              		.file 1 "main.c"
   1:main.c        **** /* ========================================
   2:main.c        ****  *
   3:main.c        ****  * Copyright YOUR COMPANY, THE YEAR
   4:main.c        ****  * All Rights Reserved
   5:main.c        ****  * UNPUBLISHED, LICENSED SOFTWARE.
   6:main.c        ****  *
   7:main.c        ****  * CONFIDENTIAL AND PROPRIETARY INFORMATION
   8:main.c        ****  * WHICH IS THE PROPERTY OF your company.
   9:main.c        ****  *
  10:main.c        ****  * ========================================
  11:main.c        **** */
  12:main.c        **** #include "project.h"
  13:main.c        **** #include <stdio.h>
  14:main.c        **** #include "math.h"
  15:main.c        **** #include <stdbool.h>
  16:main.c        **** 
  17:main.c        **** #define PI 3.14159265
  18:main.c        **** float board_coords[8][8][2] = {
  19:main.c        ****     {{  0,   0}, {96, 324}, { 0,   0}, {19, 324}, {  0,   0}, {-57, 324}, {  0,   0}, {-135, 285}},
  20:main.c        ****     {{135, 285}, { 0,   0}, {57, 285}, { 0,   0}, {-19, 285}, {  0,   0}, {-96, 285}, {   0,   0}},
  21:main.c        ****     {{  0,   0}, {96, 246}, { 0,   0}, {19, 246}, {  0,   0}, {-57, 246}, {  0,   0}, {-135, 246}},
  22:main.c        ****     {{135, 208}, { 0,   0}, {57, 208}, { 0,   0}, {-19, 208}, {  0,   0}, {-96, 208}, {   0,   0}},
  23:main.c        ****     {{  0,   0}, {96, 170}, { 0,   0}, {19, 170}, {  0,   0}, {-57, 170}, {  0,   0}, {-135, 170}},
  24:main.c        ****     {{135, 132}, { 0,   0}, {57, 132}, { 0,   0}, {-19, 132}, {  0,   0}, {-96, 132}, {   0,   0}},
  25:main.c        ****     {{  0,   0}, {96,  95}, { 0,   0}, {19,  95}, {  0,   0}, {-57,  95}, {  0,   0}, {-135,  95}},
  26:main.c        ****     {{135,  57}, { 0,   0}, {57,  57}, { 0,   0}, {-19,  57}, {  0,   0}, {-96,  57}, {   0,   0}}
  27:main.c        **** };
  28:main.c        **** 
ARM GAS  C:\Users\ekatr\AppData\Local\Temp\ccGN8Gn8.s 			page 2


  29:main.c        **** float dead_coords[6][4][2] = {
  30:main.c        ****     {{243, 285}, {207, 285}, {-207, 285}, {-243, 285}},
  31:main.c        ****     {{243, 246}, {207, 246}, {-207, 246}, {-243, 246}},
  32:main.c        ****     {{243, 208}, {207, 208}, {-207, 208}, {-243, 208}},
  33:main.c        ****     {{243, 170}, {207, 170}, {-207, 170}, {-243, 170}},
  34:main.c        ****     {{243, 132}, {207, 132}, {-207, 132}, {-243, 132}},
  35:main.c        ****     {{243,  95}, {207,  95}, {-207,  95}, {-243,  95}}
  36:main.c        **** };
  37:main.c        **** 
  38:main.c        **** void initalize();
  39:main.c        **** float angle_1_to_compare(float angle);
  40:main.c        **** float angle_2_to_compare(float angle);
  41:main.c        **** float angle_3_to_compare(float angle);
  42:main.c        **** float angle_4_to_compare(float angle);
  43:main.c        **** float rad2deg(float rad);
  44:main.c        **** void jump_to(float servo1, float servo2, float servo3, float servo4);
  45:main.c        **** void move_to(float servo[]);
  46:main.c        **** float *get_coords(int row, int col, bool king, bool zone);
  47:main.c        **** float * inverse_Kinematics(float *coord);
  48:main.c        **** 
  49:main.c        **** 
  50:main.c        **** 
  51:main.c        **** int main(void)
  52:main.c        **** {
  53:main.c        ****     CyGlobalIntEnable; /* Enable global interrupts. */
  54:main.c        **** 
  55:main.c        ****     initalize();
  56:main.c        ****     
  57:main.c        ****     float *angles;
  58:main.c        ****     float *coords;
  59:main.c        ****     
  60:main.c        ****     float home[] = {90, 29, 120, 108.2};
  61:main.c        ****     jump_to(90, 90, 90, 0);
  62:main.c        **** //    coords = get_coords(1,2,1,1);
  63:main.c        **** //    coords = inverse_Kinematics(coords);
  64:main.c        **** //        UART_1_PutString("Moving to 1,2\n");
  65:main.c        **** //    move_to(coords);
  66:main.c        **** //
  67:main.c        **** //    //angles = inverse_Kinematics(coords);
  68:main.c        **** //    
  69:main.c        **** //    coords = get_coords(7,8,1,1);
  70:main.c        **** //    coords = inverse_Kinematics(coords);
  71:main.c        **** //    char tmpstr[15];
  72:main.c        **** //    sprintf(tmpstr, "%f, %f, %f, %f\n", coords[0], coords[1], coords[2], coords[3]); 
  73:main.c        **** //    UART_1_PutString(tmpstr);
  74:main.c        **** //    UART_1_PutString("Moving to 7,8\n");
  75:main.c        **** //    move_to(coords);
  76:main.c        **** //
  77:main.c        **** //    
  78:main.c        **** //    CyDelay(1000);
  79:main.c        **** //    coords[0] = 90;
  80:main.c        **** //    coords[1] = 90;
  81:main.c        **** //    coords[2] = 90;
  82:main.c        **** //    coords[3] = 0;
  83:main.c        **** //    move_to(coords);
  84:main.c        **** //    
  85:main.c        **** //    CyDelay(1000);
ARM GAS  C:\Users\ekatr\AppData\Local\Temp\ccGN8Gn8.s 			page 3


  86:main.c        **** //    
  87:main.c        **** //    move_to(home);
  88:main.c        ****     
  89:main.c        ****     CyDelay(1000);
  90:main.c        ****     
  91:main.c        ****     for(;;)
  92:main.c        ****     {
  93:main.c        ****         /* Place your application code here. */
  94:main.c        ****         
  95:main.c        ****     }
  96:main.c        **** }
  97:main.c        **** 
  98:main.c        **** void initalize() {
  99:main.c        ****     UART_1_Start();
 100:main.c        ****     
 101:main.c        ****     SPI_Start();
 102:main.c        ****     jump_to(90, 29, 120, 108.2);
 103:main.c        ****     PWM_1_Enable();
 104:main.c        ****     PWM_2_Enable();
 105:main.c        ****     PWM_3_Enable();
 106:main.c        ****     //PWM_4_Enable();
 107:main.c        ****     
 108:main.c        ****     
 109:main.c        ****     
 110:main.c        **** }
 111:main.c        **** 
 112:main.c        **** float *get_coords(int row, int col, bool king, bool zone) {
  30              		.loc 1 112 0
  31              		.cfi_startproc
  32              		@ args = 0, pretend = 0, frame = 0
  33              		@ frame_needed = 0, uses_anonymous_args = 0
  34              	.LVL0:
  35 0000 38B5     		push	{r3, r4, r5, lr}
  36              		.cfi_def_cfa_offset 16
  37              		.cfi_offset 3, -16
  38              		.cfi_offset 4, -12
  39              		.cfi_offset 5, -8
  40              		.cfi_offset 14, -4
  41 0002 1446     		mov	r4, r2
  42              	.LVL1:
 113:main.c        ****     int piece_height = 1;
 114:main.c        ****     int king_height = 2* piece_height;
 115:main.c        ****     float base_offset = 60.625;
 116:main.c        ****     static float coords[3];
 117:main.c        ****     if(zone) {
  43              		.loc 1 117 0
  44 0004 73B1     		cbz	r3, .L2
 118:main.c        ****         coords[0] = board_coords[row][col][0];
  45              		.loc 1 118 0
  46 0006 1A4B     		ldr	r3, .L7+16
  47              	.LVL2:
  48 0008 01EBC001 		add	r1, r1, r0, lsl #3
  49              	.LVL3:
  50 000c 53F83120 		ldr	r2, [r3, r1, lsl #3]	@ float
  51              	.LVL4:
  52 0010 184D     		ldr	r5, .L7+20
  53 0012 2A60     		str	r2, [r5]	@ float
ARM GAS  C:\Users\ekatr\AppData\Local\Temp\ccGN8Gn8.s 			page 4


 119:main.c        ****         coords[1] = board_coords[row][col][1] + base_offset;
  54              		.loc 1 119 0
  55 0014 03EBC103 		add	r3, r3, r1, lsl #3
  56 0018 1749     		ldr	r1, .L7+24
  57 001a 5868     		ldr	r0, [r3, #4]	@ float
  58              	.LVL5:
  59 001c FFF7FEFF 		bl	__aeabi_fadd
  60              	.LVL6:
  61 0020 6860     		str	r0, [r5, #4]	@ float
  62 0022 0EE0     		b	.L3
  63              	.LVL7:
  64              	.L2:
 120:main.c        ****     } 
 121:main.c        ****     else {
 122:main.c        ****         coords[0] = dead_coords[row][col][0];
  65              		.loc 1 122 0
  66 0024 01EB8001 		add	r1, r1, r0, lsl #2
  67              	.LVL8:
  68 0028 1148     		ldr	r0, .L7+16
  69              	.LVL9:
  70 002a 00EBC100 		add	r0, r0, r1, lsl #3
  71 002e D0F80032 		ldr	r3, [r0, #512]	@ float
  72              	.LVL10:
  73 0032 104D     		ldr	r5, .L7+20
  74 0034 2B60     		str	r3, [r5]	@ float
 123:main.c        ****         coords[1] = dead_coords[row][col][1] + base_offset;
  75              		.loc 1 123 0
  76 0036 1049     		ldr	r1, .L7+24
  77 0038 D0F80402 		ldr	r0, [r0, #516]	@ float
  78 003c FFF7FEFF 		bl	__aeabi_fadd
  79              	.LVL11:
  80 0040 6860     		str	r0, [r5, #4]	@ float
  81              	.L3:
 124:main.c        ****     }
 125:main.c        ****     coords[2] = (king?king_height:piece_height) - 9.928;
  82              		.loc 1 125 0
  83 0042 1CB1     		cbz	r4, .L5
  84 0044 06A1     		adr	r1, .L7
  85 0046 D1E90001 		ldrd	r0, [r1]
  86 004a 02E0     		b	.L4
  87              	.L5:
  88 004c 06A1     		adr	r1, .L7+8
  89 004e D1E90001 		ldrd	r0, [r1]
  90              	.L4:
  91              		.loc 1 125 0 is_stmt 0 discriminator 4
  92 0052 084C     		ldr	r4, .L7+20
  93 0054 FFF7FEFF 		bl	__aeabi_d2f
  94              	.LVL12:
  95 0058 A060     		str	r0, [r4, #8]	@ float
 126:main.c        ****     
 127:main.c        ****     return coords;   
 128:main.c        **** }
  96              		.loc 1 128 0 is_stmt 1 discriminator 4
  97 005a 2046     		mov	r0, r4
  98 005c 38BD     		pop	{r3, r4, r5, pc}
  99              	.L8:
 100 005e 00BF     		.align	3
ARM GAS  C:\Users\ekatr\AppData\Local\Temp\ccGN8Gn8.s 			page 5


 101              	.L7:
 102 0060 84C0CAA1 		.word	-1580547964
 103 0064 45B61FC0 		.word	-1071663547
 104 0068 4260E5D0 		.word	-790273982
 105 006c 22DB21C0 		.word	-1071523038
 106 0070 00000000 		.word	.LANCHOR0
 107 0074 00000000 		.word	.LANCHOR1
 108 0078 00807242 		.word	1114800128
 109              		.cfi_endproc
 110              	.LFE66:
 111              		.size	get_coords, .-get_coords
 112              		.global	__aeabi_fmul
 113              		.global	__aeabi_f2d
 114              		.global	__aeabi_ddiv
 115              		.section	.text.rad2deg,"ax",%progbits
 116              		.align	2
 117              		.global	rad2deg
 118              		.thumb
 119              		.thumb_func
 120              		.type	rad2deg, %function
 121              	rad2deg:
 122              	.LFB68:
 129:main.c        **** 
 130:main.c        **** float *inverse_Kinematics(float *coord) {
 131:main.c        ****     static float angles[4];
 132:main.c        ****     
 133:main.c        ****     // Get Coordinates
 134:main.c        ****     float x = coord[0];
 135:main.c        ****     float y = coord[1];
 136:main.c        ****     float z = coord[2];
 137:main.c        ****     
 138:main.c        ****     // Define Robotic Arm Dimensions
 139:main.c        ****     float L1 = 9.626;
 140:main.c        ****     float L2 = 23.5;
 141:main.c        ****     float L3 = 18.475;
 142:main.c        ****     float L4 = 9;
 143:main.c        ****     float phi = PI/2;
 144:main.c        ****     
 145:main.c        ****     // Theta 1 
 146:main.c        ****     angles[0] = atan2(y,x);
 147:main.c        ****     angles[0] = angles[0] + tan(6/sqrt(x*x+y*y));
 148:main.c        ****     
 149:main.c        ****     // Theta 3
 150:main.c        ****     float r = sqrt(x*x+y*y);
 151:main.c        ****     float Z = z + L4 - L1;
 152:main.c        ****     angles[2] = acos((r*r+Z*Z - L2*L2 - L3*L3) / (2*L2*L3));
 153:main.c        **** 
 154:main.c        ****     // Theta 2
 155:main.c        ****     angles[1] = atan2(Z,r) - atan2((L3*sin(angles[2])),(L2+L3*cos(angles[2])));
 156:main.c        ****     
 157:main.c        ****     // Theta 4
 158:main.c        ****     angles[3] = phi - angles[1] - angles[3];
 159:main.c        ****     
 160:main.c        ****     angles[0] = rad2deg(angles[0]);
 161:main.c        ****     angles[1] = rad2deg(angles[1]);
 162:main.c        ****     angles[2] = rad2deg(angles[2]);
 163:main.c        ****     angles[3] = rad2deg(angles[3]);
ARM GAS  C:\Users\ekatr\AppData\Local\Temp\ccGN8Gn8.s 			page 6


 164:main.c        ****     
 165:main.c        ****     return angles;
 166:main.c        **** }
 167:main.c        **** 
 168:main.c        **** float rad2deg(float rad) {
 123              		.loc 1 168 0
 124              		.cfi_startproc
 125              		@ args = 0, pretend = 0, frame = 0
 126              		@ frame_needed = 0, uses_anonymous_args = 0
 127              	.LVL13:
 128 0000 08B5     		push	{r3, lr}
 129              		.cfi_def_cfa_offset 8
 130              		.cfi_offset 3, -8
 131              		.cfi_offset 14, -4
 169:main.c        ****     return rad*180/PI;   
 132              		.loc 1 169 0
 133 0002 0949     		ldr	r1, .L11+8
 134 0004 FFF7FEFF 		bl	__aeabi_fmul
 135              	.LVL14:
 136 0008 FFF7FEFF 		bl	__aeabi_f2d
 137              	.LVL15:
 138 000c 04A3     		adr	r3, .L11
 139 000e D3E90023 		ldrd	r2, [r3]
 140 0012 FFF7FEFF 		bl	__aeabi_ddiv
 141              	.LVL16:
 142 0016 FFF7FEFF 		bl	__aeabi_d2f
 143              	.LVL17:
 170:main.c        **** }
 144              		.loc 1 170 0
 145 001a 08BD     		pop	{r3, pc}
 146              	.L12:
 147 001c AFF30080 		.align	3
 148              	.L11:
 149 0020 F1D4C853 		.word	1405670641
 150 0024 FB210940 		.word	1074340347
 151 0028 00003443 		.word	1127481344
 152              		.cfi_endproc
 153              	.LFE68:
 154              		.size	rad2deg, .-rad2deg
 155              		.global	__aeabi_dadd
 156              		.global	__aeabi_fsub
 157              		.global	__aeabi_fdiv
 158              		.global	__aeabi_dmul
 159              		.global	__aeabi_dsub
 160              		.section	.text.inverse_Kinematics,"ax",%progbits
 161              		.align	2
 162              		.global	inverse_Kinematics
 163              		.thumb
 164              		.thumb_func
 165              		.type	inverse_Kinematics, %function
 166              	inverse_Kinematics:
 167              	.LFB67:
 130:main.c        ****     static float angles[4];
 168              		.loc 1 130 0
 169              		.cfi_startproc
 170              		@ args = 0, pretend = 0, frame = 0
 171              		@ frame_needed = 0, uses_anonymous_args = 0
ARM GAS  C:\Users\ekatr\AppData\Local\Temp\ccGN8Gn8.s 			page 7


 172              	.LVL18:
 173 0000 2DE9F047 		push	{r4, r5, r6, r7, r8, r9, r10, lr}
 174              		.cfi_def_cfa_offset 32
 175              		.cfi_offset 4, -32
 176              		.cfi_offset 5, -28
 177              		.cfi_offset 6, -24
 178              		.cfi_offset 7, -20
 179              		.cfi_offset 8, -16
 180              		.cfi_offset 9, -12
 181              		.cfi_offset 10, -8
 182              		.cfi_offset 14, -4
 134:main.c        ****     float y = coord[1];
 183              		.loc 1 134 0
 184 0004 0568     		ldr	r5, [r0]	@ float
 185              	.LVL19:
 135:main.c        ****     float z = coord[2];
 186              		.loc 1 135 0
 187 0006 4468     		ldr	r4, [r0, #4]	@ float
 188              	.LVL20:
 136:main.c        ****     
 189              		.loc 1 136 0
 190 0008 D0F80880 		ldr	r8, [r0, #8]	@ float
 191              	.LVL21:
 146:main.c        ****     angles[0] = angles[0] + tan(6/sqrt(x*x+y*y));
 192              		.loc 1 146 0
 193 000c 2846     		mov	r0, r5
 194              	.LVL22:
 195 000e FFF7FEFF 		bl	__aeabi_f2d
 196              	.LVL23:
 197 0012 0646     		mov	r6, r0
 198 0014 0F46     		mov	r7, r1
 199 0016 2046     		mov	r0, r4
 200 0018 FFF7FEFF 		bl	__aeabi_f2d
 201              	.LVL24:
 202 001c 3246     		mov	r2, r6
 203 001e 3B46     		mov	r3, r7
 204 0020 FFF7FEFF 		bl	atan2
 205              	.LVL25:
 206 0024 FFF7FEFF 		bl	__aeabi_d2f
 207              	.LVL26:
 208 0028 8146     		mov	r9, r0
 209 002a DFF894A1 		ldr	r10, .L15+40
 210 002e CAF80C00 		str	r0, [r10, #12]	@ float
 147:main.c        ****     
 211              		.loc 1 147 0
 212 0032 2946     		mov	r1, r5
 213 0034 2846     		mov	r0, r5
 214 0036 FFF7FEFF 		bl	__aeabi_fmul
 215              	.LVL27:
 216 003a 0546     		mov	r5, r0
 217              	.LVL28:
 218 003c 2146     		mov	r1, r4
 219 003e 2046     		mov	r0, r4
 220 0040 FFF7FEFF 		bl	__aeabi_fmul
 221              	.LVL29:
 222 0044 0146     		mov	r1, r0
 223 0046 2846     		mov	r0, r5
ARM GAS  C:\Users\ekatr\AppData\Local\Temp\ccGN8Gn8.s 			page 8


 224 0048 FFF7FEFF 		bl	__aeabi_fadd
 225              	.LVL30:
 226 004c FFF7FEFF 		bl	__aeabi_f2d
 227              	.LVL31:
 228 0050 0446     		mov	r4, r0
 229              	.LVL32:
 230 0052 0D46     		mov	r5, r1
 231 0054 FFF7FEFF 		bl	sqrt
 232              	.LVL33:
 233 0058 0246     		mov	r2, r0
 234 005a 0B46     		mov	r3, r1
 235 005c 0020     		movs	r0, #0
 236 005e 5049     		ldr	r1, .L15+8
 237 0060 FFF7FEFF 		bl	__aeabi_ddiv
 238              	.LVL34:
 239 0064 FFF7FEFF 		bl	tan
 240              	.LVL35:
 241 0068 0646     		mov	r6, r0
 242 006a 0F46     		mov	r7, r1
 243 006c 4846     		mov	r0, r9
 244 006e FFF7FEFF 		bl	__aeabi_f2d
 245              	.LVL36:
 246 0072 3246     		mov	r2, r6
 247 0074 3B46     		mov	r3, r7
 248 0076 FFF7FEFF 		bl	__aeabi_dadd
 249              	.LVL37:
 250 007a FFF7FEFF 		bl	__aeabi_d2f
 251              	.LVL38:
 252 007e CAF80C00 		str	r0, [r10, #12]	@ float
 150:main.c        ****     float Z = z + L4 - L1;
 253              		.loc 1 150 0
 254 0082 2046     		mov	r0, r4
 255 0084 2946     		mov	r1, r5
 256 0086 FFF7FEFF 		bl	sqrt
 257              	.LVL39:
 258 008a FFF7FEFF 		bl	__aeabi_d2f
 259              	.LVL40:
 260 008e 0546     		mov	r5, r0
 261              	.LVL41:
 151:main.c        ****     angles[2] = acos((r*r+Z*Z - L2*L2 - L3*L3) / (2*L2*L3));
 262              		.loc 1 151 0
 263 0090 4449     		ldr	r1, .L15+12
 264 0092 4046     		mov	r0, r8
 265              	.LVL42:
 266 0094 FFF7FEFF 		bl	__aeabi_fadd
 267              	.LVL43:
 268 0098 4349     		ldr	r1, .L15+16
 269 009a FFF7FEFF 		bl	__aeabi_fsub
 270              	.LVL44:
 271 009e 0446     		mov	r4, r0
 272              	.LVL45:
 152:main.c        **** 
 273              		.loc 1 152 0
 274 00a0 2946     		mov	r1, r5
 275 00a2 2846     		mov	r0, r5
 276              	.LVL46:
 277 00a4 FFF7FEFF 		bl	__aeabi_fmul
ARM GAS  C:\Users\ekatr\AppData\Local\Temp\ccGN8Gn8.s 			page 9


 278              	.LVL47:
 279 00a8 0646     		mov	r6, r0
 280 00aa 2146     		mov	r1, r4
 281 00ac 2046     		mov	r0, r4
 282 00ae FFF7FEFF 		bl	__aeabi_fmul
 283              	.LVL48:
 284 00b2 0146     		mov	r1, r0
 285 00b4 3046     		mov	r0, r6
 286 00b6 FFF7FEFF 		bl	__aeabi_fadd
 287              	.LVL49:
 288 00ba 3C49     		ldr	r1, .L15+20
 289 00bc FFF7FEFF 		bl	__aeabi_fsub
 290              	.LVL50:
 291 00c0 3B49     		ldr	r1, .L15+24
 292 00c2 FFF7FEFF 		bl	__aeabi_fsub
 293              	.LVL51:
 294 00c6 3B49     		ldr	r1, .L15+28
 295 00c8 FFF7FEFF 		bl	__aeabi_fdiv
 296              	.LVL52:
 297 00cc FFF7FEFF 		bl	__aeabi_f2d
 298              	.LVL53:
 299 00d0 FFF7FEFF 		bl	acos
 300              	.LVL54:
 301 00d4 FFF7FEFF 		bl	__aeabi_d2f
 302              	.LVL55:
 303 00d8 CAF81400 		str	r0, [r10, #20]	@ float
 155:main.c        ****     
 304              		.loc 1 155 0
 305 00dc 2846     		mov	r0, r5
 306 00de FFF7FEFF 		bl	__aeabi_f2d
 307              	.LVL56:
 308 00e2 0646     		mov	r6, r0
 309 00e4 0F46     		mov	r7, r1
 310 00e6 2046     		mov	r0, r4
 311 00e8 FFF7FEFF 		bl	__aeabi_f2d
 312              	.LVL57:
 313 00ec 3246     		mov	r2, r6
 314 00ee 3B46     		mov	r3, r7
 315 00f0 FFF7FEFF 		bl	atan2
 316              	.LVL58:
 317 00f4 0446     		mov	r4, r0
 318              	.LVL59:
 319 00f6 0D46     		mov	r5, r1
 320              	.LVL60:
 321 00f8 DAF81400 		ldr	r0, [r10, #20]	@ float
 322 00fc FFF7FEFF 		bl	__aeabi_f2d
 323              	.LVL61:
 324 0100 8046     		mov	r8, r0
 325              	.LVL62:
 326 0102 8946     		mov	r9, r1
 327 0104 FFF7FEFF 		bl	sin
 328              	.LVL63:
 329 0108 0646     		mov	r6, r0
 330 010a 0F46     		mov	r7, r1
 331 010c 4046     		mov	r0, r8
 332 010e 4946     		mov	r1, r9
 333 0110 FFF7FEFF 		bl	cos
ARM GAS  C:\Users\ekatr\AppData\Local\Temp\ccGN8Gn8.s 			page 10


 334              	.LVL64:
 335 0114 20A3     		adr	r3, .L15
 336 0116 D3E90023 		ldrd	r2, [r3]
 337 011a FFF7FEFF 		bl	__aeabi_dmul
 338              	.LVL65:
 339 011e 0022     		movs	r2, #0
 340 0120 254B     		ldr	r3, .L15+32
 341 0122 FFF7FEFF 		bl	__aeabi_dadd
 342              	.LVL66:
 343 0126 8046     		mov	r8, r0
 344 0128 8946     		mov	r9, r1
 345 012a 1BA3     		adr	r3, .L15
 346 012c D3E90023 		ldrd	r2, [r3]
 347 0130 3046     		mov	r0, r6
 348 0132 3946     		mov	r1, r7
 349 0134 FFF7FEFF 		bl	__aeabi_dmul
 350              	.LVL67:
 351 0138 4246     		mov	r2, r8
 352 013a 4B46     		mov	r3, r9
 353 013c FFF7FEFF 		bl	atan2
 354              	.LVL68:
 355 0140 0246     		mov	r2, r0
 356 0142 0B46     		mov	r3, r1
 357 0144 2046     		mov	r0, r4
 358 0146 2946     		mov	r1, r5
 359 0148 FFF7FEFF 		bl	__aeabi_dsub
 360              	.LVL69:
 361 014c FFF7FEFF 		bl	__aeabi_d2f
 362              	.LVL70:
 363 0150 0446     		mov	r4, r0
 158:main.c        ****     
 364              		.loc 1 158 0
 365 0152 0146     		mov	r1, r0
 366 0154 1948     		ldr	r0, .L15+36
 367 0156 FFF7FEFF 		bl	__aeabi_fsub
 368              	.LVL71:
 369 015a DAF81810 		ldr	r1, [r10, #24]	@ float
 370 015e FFF7FEFF 		bl	__aeabi_fsub
 371              	.LVL72:
 372 0162 0546     		mov	r5, r0
 160:main.c        ****     angles[1] = rad2deg(angles[1]);
 373              		.loc 1 160 0
 374 0164 DAF80C00 		ldr	r0, [r10, #12]	@ float
 375 0168 FFF7FEFF 		bl	rad2deg
 376              	.LVL73:
 377 016c CAF80C00 		str	r0, [r10, #12]	@ float
 161:main.c        ****     angles[2] = rad2deg(angles[2]);
 378              		.loc 1 161 0
 379 0170 2046     		mov	r0, r4
 380 0172 FFF7FEFF 		bl	rad2deg
 381              	.LVL74:
 382 0176 CAF81000 		str	r0, [r10, #16]	@ float
 162:main.c        ****     angles[3] = rad2deg(angles[3]);
 383              		.loc 1 162 0
 384 017a DAF81400 		ldr	r0, [r10, #20]	@ float
 385 017e FFF7FEFF 		bl	rad2deg
 386              	.LVL75:
ARM GAS  C:\Users\ekatr\AppData\Local\Temp\ccGN8Gn8.s 			page 11


 387 0182 CAF81400 		str	r0, [r10, #20]	@ float
 163:main.c        ****     
 388              		.loc 1 163 0
 389 0186 2846     		mov	r0, r5
 390 0188 FFF7FEFF 		bl	rad2deg
 391              	.LVL76:
 392 018c CAF81800 		str	r0, [r10, #24]	@ float
 166:main.c        **** 
 393              		.loc 1 166 0
 394 0190 0AF10C00 		add	r0, r10, #12
 395 0194 BDE8F087 		pop	{r4, r5, r6, r7, r8, r9, r10, pc}
 396              	.L16:
 397              		.align	3
 398              	.L15:
 399 0198 000000A0 		.word	-1610612736
 400 019c 99793240 		.word	1077049753
 401 01a0 00001840 		.word	1075314688
 402 01a4 00001041 		.word	1091567616
 403 01a8 19041A41 		.word	1092224025
 404 01ac 00100A44 		.word	1141510144
 405 01b0 AFA9AA43 		.word	1135258031
 406 01b4 CD145944 		.word	1146688717
 407 01b8 00803740 		.word	1077379072
 408 01bc DB0FC93F 		.word	1070141403
 409 01c0 00000000 		.word	.LANCHOR1
 410              		.cfi_endproc
 411              	.LFE67:
 412              		.size	inverse_Kinematics, .-inverse_Kinematics
 413              		.section	.text.angle_1_to_compare,"ax",%progbits
 414              		.align	2
 415              		.global	angle_1_to_compare
 416              		.thumb
 417              		.thumb_func
 418              		.type	angle_1_to_compare, %function
 419              	angle_1_to_compare:
 420              	.LFB69:
 171:main.c        **** 
 172:main.c        **** float angle_1_to_compare(float angle) {
 421              		.loc 1 172 0
 422              		.cfi_startproc
 423              		@ args = 0, pretend = 0, frame = 0
 424              		@ frame_needed = 0, uses_anonymous_args = 0
 425              	.LVL77:
 426 0000 08B5     		push	{r3, lr}
 427              		.cfi_def_cfa_offset 8
 428              		.cfi_offset 3, -8
 429              		.cfi_offset 14, -4
 173:main.c        ****     return angle/180*(5000-1000)+1000;
 430              		.loc 1 173 0
 431 0002 0549     		ldr	r1, .L19
 432 0004 FFF7FEFF 		bl	__aeabi_fdiv
 433              	.LVL78:
 434 0008 0449     		ldr	r1, .L19+4
 435 000a FFF7FEFF 		bl	__aeabi_fmul
 436              	.LVL79:
 437 000e 0449     		ldr	r1, .L19+8
 438 0010 FFF7FEFF 		bl	__aeabi_fadd
ARM GAS  C:\Users\ekatr\AppData\Local\Temp\ccGN8Gn8.s 			page 12


 439              	.LVL80:
 174:main.c        **** }
 440              		.loc 1 174 0
 441 0014 08BD     		pop	{r3, pc}
 442              	.L20:
 443 0016 00BF     		.align	2
 444              	.L19:
 445 0018 00003443 		.word	1127481344
 446 001c 00007A45 		.word	1165623296
 447 0020 00007A44 		.word	1148846080
 448              		.cfi_endproc
 449              	.LFE69:
 450              		.size	angle_1_to_compare, .-angle_1_to_compare
 451              		.section	.text.angle_2_to_compare,"ax",%progbits
 452              		.align	2
 453              		.global	angle_2_to_compare
 454              		.thumb
 455              		.thumb_func
 456              		.type	angle_2_to_compare, %function
 457              	angle_2_to_compare:
 458              	.LFB70:
 175:main.c        **** 
 176:main.c        **** float angle_2_to_compare(float angle) {
 459              		.loc 1 176 0
 460              		.cfi_startproc
 461              		@ args = 0, pretend = 0, frame = 0
 462              		@ frame_needed = 0, uses_anonymous_args = 0
 463              	.LVL81:
 464 0000 08B5     		push	{r3, lr}
 465              		.cfi_def_cfa_offset 8
 466              		.cfi_offset 3, -8
 467              		.cfi_offset 14, -4
 177:main.c        ****     return angle/90*(3000-1200)+1200;
 468              		.loc 1 177 0
 469 0002 0549     		ldr	r1, .L23
 470 0004 FFF7FEFF 		bl	__aeabi_fdiv
 471              	.LVL82:
 472 0008 0449     		ldr	r1, .L23+4
 473 000a FFF7FEFF 		bl	__aeabi_fmul
 474              	.LVL83:
 475 000e 0449     		ldr	r1, .L23+8
 476 0010 FFF7FEFF 		bl	__aeabi_fadd
 477              	.LVL84:
 178:main.c        **** }
 478              		.loc 1 178 0
 479 0014 08BD     		pop	{r3, pc}
 480              	.L24:
 481 0016 00BF     		.align	2
 482              	.L23:
 483 0018 0000B442 		.word	1119092736
 484 001c 0000E144 		.word	1155596288
 485 0020 00009644 		.word	1150681088
 486              		.cfi_endproc
 487              	.LFE70:
 488              		.size	angle_2_to_compare, .-angle_2_to_compare
 489              		.section	.text.angle_3_to_compare,"ax",%progbits
 490              		.align	2
ARM GAS  C:\Users\ekatr\AppData\Local\Temp\ccGN8Gn8.s 			page 13


 491              		.global	angle_3_to_compare
 492              		.thumb
 493              		.thumb_func
 494              		.type	angle_3_to_compare, %function
 495              	angle_3_to_compare:
 496              	.LFB71:
 179:main.c        **** 
 180:main.c        **** float angle_3_to_compare(float angle) {
 497              		.loc 1 180 0
 498              		.cfi_startproc
 499              		@ args = 0, pretend = 0, frame = 0
 500              		@ frame_needed = 0, uses_anonymous_args = 0
 501              	.LVL85:
 502 0000 08B5     		push	{r3, lr}
 503              		.cfi_def_cfa_offset 8
 504              		.cfi_offset 3, -8
 505              		.cfi_offset 14, -4
 181:main.c        ****     return angle/180*3500+1000;
 506              		.loc 1 181 0
 507 0002 0549     		ldr	r1, .L27
 508 0004 FFF7FEFF 		bl	__aeabi_fdiv
 509              	.LVL86:
 510 0008 0449     		ldr	r1, .L27+4
 511 000a FFF7FEFF 		bl	__aeabi_fmul
 512              	.LVL87:
 513 000e 0449     		ldr	r1, .L27+8
 514 0010 FFF7FEFF 		bl	__aeabi_fadd
 515              	.LVL88:
 182:main.c        **** }
 516              		.loc 1 182 0
 517 0014 08BD     		pop	{r3, pc}
 518              	.L28:
 519 0016 00BF     		.align	2
 520              	.L27:
 521 0018 00003443 		.word	1127481344
 522 001c 00C05A45 		.word	1163575296
 523 0020 00007A44 		.word	1148846080
 524              		.cfi_endproc
 525              	.LFE71:
 526              		.size	angle_3_to_compare, .-angle_3_to_compare
 527              		.section	.text.angle_4_to_compare,"ax",%progbits
 528              		.align	2
 529              		.global	angle_4_to_compare
 530              		.thumb
 531              		.thumb_func
 532              		.type	angle_4_to_compare, %function
 533              	angle_4_to_compare:
 534              	.LFB72:
 183:main.c        **** 
 184:main.c        **** float angle_4_to_compare(float angle) {
 535              		.loc 1 184 0
 536              		.cfi_startproc
 537              		@ args = 0, pretend = 0, frame = 0
 538              		@ frame_needed = 0, uses_anonymous_args = 0
 539              	.LVL89:
 540 0000 08B5     		push	{r3, lr}
 541              		.cfi_def_cfa_offset 8
ARM GAS  C:\Users\ekatr\AppData\Local\Temp\ccGN8Gn8.s 			page 14


 542              		.cfi_offset 3, -8
 543              		.cfi_offset 14, -4
 185:main.c        ****     return angle/180*2000+2000;
 544              		.loc 1 185 0
 545 0002 0549     		ldr	r1, .L31
 546 0004 FFF7FEFF 		bl	__aeabi_fdiv
 547              	.LVL90:
 548 0008 0449     		ldr	r1, .L31+4
 549 000a FFF7FEFF 		bl	__aeabi_fmul
 550              	.LVL91:
 551 000e 0349     		ldr	r1, .L31+4
 552 0010 FFF7FEFF 		bl	__aeabi_fadd
 553              	.LVL92:
 186:main.c        **** }
 554              		.loc 1 186 0
 555 0014 08BD     		pop	{r3, pc}
 556              	.L32:
 557 0016 00BF     		.align	2
 558              	.L31:
 559 0018 00003443 		.word	1127481344
 560 001c 0000FA44 		.word	1157234688
 561              		.cfi_endproc
 562              	.LFE72:
 563              		.size	angle_4_to_compare, .-angle_4_to_compare
 564              		.global	__aeabi_f2uiz
 565              		.section	.text.jump_to,"ax",%progbits
 566              		.align	2
 567              		.global	jump_to
 568              		.thumb
 569              		.thumb_func
 570              		.type	jump_to, %function
 571              	jump_to:
 572              	.LFB73:
 187:main.c        **** 
 188:main.c        **** void jump_to(float servo1, float servo2, float servo3, float servo4) {
 573              		.loc 1 188 0
 574              		.cfi_startproc
 575              		@ args = 0, pretend = 0, frame = 0
 576              		@ frame_needed = 0, uses_anonymous_args = 0
 577              	.LVL93:
 578 0000 70B5     		push	{r4, r5, r6, lr}
 579              		.cfi_def_cfa_offset 16
 580              		.cfi_offset 4, -16
 581              		.cfi_offset 5, -12
 582              		.cfi_offset 6, -8
 583              		.cfi_offset 14, -4
 584 0002 0E46     		mov	r6, r1
 585 0004 1546     		mov	r5, r2
 586 0006 1C46     		mov	r4, r3
 189:main.c        ****     PWM_1_WriteCompare(angle_1_to_compare(servo1));
 587              		.loc 1 189 0
 588 0008 FFF7FEFF 		bl	angle_1_to_compare
 589              	.LVL94:
 590 000c FFF7FEFF 		bl	__aeabi_f2uiz
 591              	.LVL95:
 592 0010 80B2     		uxth	r0, r0
 593 0012 FFF7FEFF 		bl	PWM_1_WriteCompare
ARM GAS  C:\Users\ekatr\AppData\Local\Temp\ccGN8Gn8.s 			page 15


 594              	.LVL96:
 190:main.c        ****     PWM_2_WriteCompare(angle_2_to_compare(servo2));
 595              		.loc 1 190 0
 596 0016 3046     		mov	r0, r6
 597 0018 FFF7FEFF 		bl	angle_2_to_compare
 598              	.LVL97:
 599 001c FFF7FEFF 		bl	__aeabi_f2uiz
 600              	.LVL98:
 601 0020 80B2     		uxth	r0, r0
 602 0022 FFF7FEFF 		bl	PWM_2_WriteCompare
 603              	.LVL99:
 191:main.c        ****     PWM_3_WriteCompare(angle_3_to_compare(servo3));
 604              		.loc 1 191 0
 605 0026 2846     		mov	r0, r5
 606 0028 FFF7FEFF 		bl	angle_3_to_compare
 607              	.LVL100:
 608 002c FFF7FEFF 		bl	__aeabi_f2uiz
 609              	.LVL101:
 610 0030 80B2     		uxth	r0, r0
 611 0032 FFF7FEFF 		bl	PWM_3_WriteCompare
 612              	.LVL102:
 192:main.c        ****     PWM_4_WriteCompare(angle_4_to_compare(servo4));
 613              		.loc 1 192 0
 614 0036 2046     		mov	r0, r4
 615 0038 FFF7FEFF 		bl	angle_4_to_compare
 616              	.LVL103:
 617 003c FFF7FEFF 		bl	__aeabi_f2uiz
 618              	.LVL104:
 619 0040 80B2     		uxth	r0, r0
 620 0042 FFF7FEFF 		bl	PWM_4_WriteCompare
 621              	.LVL105:
 622 0046 70BD     		pop	{r4, r5, r6, pc}
 623              		.cfi_endproc
 624              	.LFE73:
 625              		.size	jump_to, .-jump_to
 626              		.section	.text.initalize,"ax",%progbits
 627              		.align	2
 628              		.global	initalize
 629              		.thumb
 630              		.thumb_func
 631              		.type	initalize, %function
 632              	initalize:
 633              	.LFB65:
  98:main.c        ****     UART_1_Start();
 634              		.loc 1 98 0
 635              		.cfi_startproc
 636              		@ args = 0, pretend = 0, frame = 0
 637              		@ frame_needed = 0, uses_anonymous_args = 0
 638 0000 08B5     		push	{r3, lr}
 639              		.cfi_def_cfa_offset 8
 640              		.cfi_offset 3, -8
 641              		.cfi_offset 14, -4
  99:main.c        ****     
 642              		.loc 1 99 0
 643 0002 FFF7FEFF 		bl	UART_1_Start
 644              	.LVL106:
 101:main.c        ****     jump_to(90, 29, 120, 108.2);
ARM GAS  C:\Users\ekatr\AppData\Local\Temp\ccGN8Gn8.s 			page 16


 645              		.loc 1 101 0
 646 0006 FFF7FEFF 		bl	SPI_Start
 647              	.LVL107:
 102:main.c        ****     PWM_1_Enable();
 648              		.loc 1 102 0
 649 000a 064B     		ldr	r3, .L37
 650 000c 064A     		ldr	r2, .L37+4
 651 000e 0749     		ldr	r1, .L37+8
 652 0010 0748     		ldr	r0, .L37+12
 653 0012 FFF7FEFF 		bl	jump_to
 654              	.LVL108:
 103:main.c        ****     PWM_2_Enable();
 655              		.loc 1 103 0
 656 0016 FFF7FEFF 		bl	PWM_1_Enable
 657              	.LVL109:
 104:main.c        ****     PWM_3_Enable();
 658              		.loc 1 104 0
 659 001a FFF7FEFF 		bl	PWM_2_Enable
 660              	.LVL110:
 105:main.c        ****     //PWM_4_Enable();
 661              		.loc 1 105 0
 662 001e FFF7FEFF 		bl	PWM_3_Enable
 663              	.LVL111:
 664 0022 08BD     		pop	{r3, pc}
 665              	.L38:
 666              		.align	2
 667              	.L37:
 668 0024 6666D842 		.word	1121478246
 669 0028 0000F042 		.word	1123024896
 670 002c 0000E841 		.word	1105723392
 671 0030 0000B442 		.word	1119092736
 672              		.cfi_endproc
 673              	.LFE65:
 674              		.size	initalize, .-initalize
 675              		.section	.text.main,"ax",%progbits
 676              		.align	2
 677              		.global	main
 678              		.thumb
 679              		.thumb_func
 680              		.type	main, %function
 681              	main:
 682              	.LFB64:
  52:main.c        ****     CyGlobalIntEnable; /* Enable global interrupts. */
 683              		.loc 1 52 0
 684              		.cfi_startproc
 685              		@ args = 0, pretend = 0, frame = 0
 686              		@ frame_needed = 0, uses_anonymous_args = 0
 687 0000 08B5     		push	{r3, lr}
 688              		.cfi_def_cfa_offset 8
 689              		.cfi_offset 3, -8
 690              		.cfi_offset 14, -4
  53:main.c        **** 
 691              		.loc 1 53 0
 692              		.syntax unified
 693              	@ 53 "main.c" 1
 694 0002 62B6     		CPSIE   i
 695              	@ 0 "" 2
ARM GAS  C:\Users\ekatr\AppData\Local\Temp\ccGN8Gn8.s 			page 17


  55:main.c        ****     
 696              		.loc 1 55 0
 697              		.thumb
 698              		.syntax unified
 699 0004 FFF7FEFF 		bl	initalize
 700              	.LVL112:
  61:main.c        **** //    coords = get_coords(1,2,1,1);
 701              		.loc 1 61 0
 702 0008 0548     		ldr	r0, .L42
 703 000a 0023     		movs	r3, #0
 704 000c 0246     		mov	r2, r0
 705 000e 0146     		mov	r1, r0
 706 0010 FFF7FEFF 		bl	jump_to
 707              	.LVL113:
  89:main.c        ****     
 708              		.loc 1 89 0
 709 0014 4FF47A70 		mov	r0, #1000
 710 0018 FFF7FEFF 		bl	CyDelay
 711              	.LVL114:
 712              	.L40:
 713 001c FEE7     		b	.L40
 714              	.L43:
 715 001e 00BF     		.align	2
 716              	.L42:
 717 0020 0000B442 		.word	1119092736
 718              		.cfi_endproc
 719              	.LFE64:
 720              		.size	main, .-main
 721              		.global	__aeabi_d2iz
 722              		.section	.text.move_to,"ax",%progbits
 723              		.align	2
 724              		.global	move_to
 725              		.thumb
 726              		.thumb_func
 727              		.type	move_to, %function
 728              	move_to:
 729              	.LFB74:
 193:main.c        **** }
 194:main.c        **** 
 195:main.c        **** void move_to(float servo[]) {
 730              		.loc 1 195 0
 731              		.cfi_startproc
 732              		@ args = 0, pretend = 0, frame = 16
 733              		@ frame_needed = 0, uses_anonymous_args = 0
 734              	.LVL115:
 735 0000 2DE9F04F 		push	{r4, r5, r6, r7, r8, r9, r10, fp, lr}
 736              		.cfi_def_cfa_offset 36
 737              		.cfi_offset 4, -36
 738              		.cfi_offset 5, -32
 739              		.cfi_offset 6, -28
 740              		.cfi_offset 7, -24
 741              		.cfi_offset 8, -20
 742              		.cfi_offset 9, -16
 743              		.cfi_offset 10, -12
 744              		.cfi_offset 11, -8
 745              		.cfi_offset 14, -4
 746 0004 85B0     		sub	sp, sp, #20
ARM GAS  C:\Users\ekatr\AppData\Local\Temp\ccGN8Gn8.s 			page 18


 747              		.cfi_def_cfa_offset 56
 748 0006 0446     		mov	r4, r0
 749              	.LVL116:
 196:main.c        ****     int fin_1 = 0, fin_2 = 0, fin_3 = 0, fin_4 = 0;
 197:main.c        ****     int speed = 10;
 198:main.c        ****     
 199:main.c        ****     float angle1 = angle_1_to_compare(servo[0]);
 750              		.loc 1 199 0
 751 0008 0068     		ldr	r0, [r0]	@ float
 752              	.LVL117:
 753 000a FFF7FEFF 		bl	angle_1_to_compare
 754              	.LVL118:
 755 000e 0746     		mov	r7, r0
 756              	.LVL119:
 200:main.c        ****     float angle2 = angle_2_to_compare(servo[1]);
 757              		.loc 1 200 0
 758 0010 6068     		ldr	r0, [r4, #4]	@ float
 759              	.LVL120:
 760 0012 FFF7FEFF 		bl	angle_2_to_compare
 761              	.LVL121:
 762 0016 0646     		mov	r6, r0
 763              	.LVL122:
 201:main.c        ****     float angle3 = angle_3_to_compare(servo[2]);
 764              		.loc 1 201 0
 765 0018 A068     		ldr	r0, [r4, #8]	@ float
 766              	.LVL123:
 767 001a FFF7FEFF 		bl	angle_3_to_compare
 768              	.LVL124:
 769 001e 0546     		mov	r5, r0
 770              	.LVL125:
 202:main.c        ****     float angle4 = angle_4_to_compare(servo[3]);
 771              		.loc 1 202 0
 772 0020 E068     		ldr	r0, [r4, #12]	@ float
 773              	.LVL126:
 774 0022 FFF7FEFF 		bl	angle_4_to_compare
 775              	.LVL127:
 776 0026 0446     		mov	r4, r0
 777              	.LVL128:
 203:main.c        ****     
 204:main.c        ****     int target1 = (int)round(angle1);
 778              		.loc 1 204 0
 779 0028 3846     		mov	r0, r7
 780              	.LVL129:
 781 002a FFF7FEFF 		bl	__aeabi_f2d
 782              	.LVL130:
 783 002e FFF7FEFF 		bl	round
 784              	.LVL131:
 785 0032 FFF7FEFF 		bl	__aeabi_d2iz
 786              	.LVL132:
 787 0036 0746     		mov	r7, r0
 788              	.LVL133:
 205:main.c        ****     int target2 = (int)round(angle2);
 789              		.loc 1 205 0
 790 0038 3046     		mov	r0, r6
 791              	.LVL134:
 792 003a FFF7FEFF 		bl	__aeabi_f2d
 793              	.LVL135:
ARM GAS  C:\Users\ekatr\AppData\Local\Temp\ccGN8Gn8.s 			page 19


 794 003e FFF7FEFF 		bl	round
 795              	.LVL136:
 796 0042 FFF7FEFF 		bl	__aeabi_d2iz
 797              	.LVL137:
 798 0046 0646     		mov	r6, r0
 799              	.LVL138:
 206:main.c        ****     int target3 = (int)round(angle3);
 800              		.loc 1 206 0
 801 0048 2846     		mov	r0, r5
 802              	.LVL139:
 803 004a FFF7FEFF 		bl	__aeabi_f2d
 804              	.LVL140:
 805 004e FFF7FEFF 		bl	round
 806              	.LVL141:
 807 0052 FFF7FEFF 		bl	__aeabi_d2iz
 808              	.LVL142:
 809 0056 0546     		mov	r5, r0
 810              	.LVL143:
 207:main.c        ****     int target4 = (int)round(angle4);
 811              		.loc 1 207 0
 812 0058 2046     		mov	r0, r4
 813              	.LVL144:
 814 005a FFF7FEFF 		bl	__aeabi_f2d
 815              	.LVL145:
 816 005e FFF7FEFF 		bl	round
 817              	.LVL146:
 818 0062 FFF7FEFF 		bl	__aeabi_d2iz
 819              	.LVL147:
 208:main.c        ****     
 209:main.c        ****     target1 = target1 - target1%speed;
 820              		.loc 1 209 0
 821 0066 4C4C     		ldr	r4, .L60
 822              	.LVL148:
 823 0068 84FB0723 		smull	r2, r3, r4, r7
 824 006c FF17     		asrs	r7, r7, #31
 825              	.LVL149:
 826 006e C7EBA307 		rsb	r7, r7, r3, asr #2
 827 0072 07EB8707 		add	r7, r7, r7, lsl #2
 828 0076 4FEA470B 		lsl	fp, r7, #1
 829              	.LVL150:
 210:main.c        ****     target2 = target2 - target2%speed;
 830              		.loc 1 210 0
 831 007a 84FB0623 		smull	r2, r3, r4, r6
 832 007e F617     		asrs	r6, r6, #31
 833              	.LVL151:
 834 0080 C6EBA306 		rsb	r6, r6, r3, asr #2
 835 0084 06EB8606 		add	r6, r6, r6, lsl #2
 836 0088 4FEA460A 		lsl	r10, r6, #1
 837              	.LVL152:
 211:main.c        ****     target3 = target3 - target3%speed;
 838              		.loc 1 211 0
 839 008c 84FB0523 		smull	r2, r3, r4, r5
 840 0090 ED17     		asrs	r5, r5, #31
 841              	.LVL153:
 842 0092 C5EBA305 		rsb	r5, r5, r3, asr #2
 843 0096 05EB8505 		add	r5, r5, r5, lsl #2
 844 009a 4FEA4509 		lsl	r9, r5, #1
ARM GAS  C:\Users\ekatr\AppData\Local\Temp\ccGN8Gn8.s 			page 20


 845              	.LVL154:
 212:main.c        ****     target4 = target4 - target4%speed;
 846              		.loc 1 212 0
 847 009e 84FB0023 		smull	r2, r3, r4, r0
 848 00a2 C017     		asrs	r0, r0, #31
 849              	.LVL155:
 850 00a4 C0EBA303 		rsb	r3, r0, r3, asr #2
 851 00a8 03EB8303 		add	r3, r3, r3, lsl #2
 852 00ac 4FEA4308 		lsl	r8, r3, #1
 853              	.LVL156:
 213:main.c        ****     
 214:main.c        ****     int current1 = PWM_1_ReadCompare();
 854              		.loc 1 214 0
 855 00b0 FFF7FEFF 		bl	PWM_1_ReadCompare
 856              	.LVL157:
 857 00b4 0746     		mov	r7, r0
 858              	.LVL158:
 215:main.c        ****     int current2 = PWM_2_ReadCompare();
 859              		.loc 1 215 0
 860 00b6 FFF7FEFF 		bl	PWM_2_ReadCompare
 861              	.LVL159:
 862 00ba 0646     		mov	r6, r0
 863              	.LVL160:
 216:main.c        ****     int current3 = PWM_3_ReadCompare();
 864              		.loc 1 216 0
 865 00bc FFF7FEFF 		bl	PWM_3_ReadCompare
 866              	.LVL161:
 867 00c0 0546     		mov	r5, r0
 868              	.LVL162:
 217:main.c        ****     int current4 = PWM_4_ReadCompare();
 869              		.loc 1 217 0
 870 00c2 FFF7FEFF 		bl	PWM_4_ReadCompare
 871              	.LVL163:
 218:main.c        ****     
 219:main.c        ****     current1 = current1 - current1%speed;
 872              		.loc 1 219 0
 873 00c6 84FB0723 		smull	r2, r3, r4, r7
 874 00ca FF17     		asrs	r7, r7, #31
 875              	.LVL164:
 876 00cc C7EBA303 		rsb	r3, r7, r3, asr #2
 877 00d0 03EB8303 		add	r3, r3, r3, lsl #2
 878 00d4 5F00     		lsls	r7, r3, #1
 879              	.LVL165:
 220:main.c        ****     current2 = current2 - current2%speed;
 880              		.loc 1 220 0
 881 00d6 84FB0623 		smull	r2, r3, r4, r6
 882 00da F617     		asrs	r6, r6, #31
 883              	.LVL166:
 884 00dc C6EBA303 		rsb	r3, r6, r3, asr #2
 885 00e0 03EB8303 		add	r3, r3, r3, lsl #2
 886 00e4 5E00     		lsls	r6, r3, #1
 887              	.LVL167:
 221:main.c        ****     current3 = current3 - current3%speed;
 888              		.loc 1 221 0
 889 00e6 84FB0523 		smull	r2, r3, r4, r5
 890 00ea ED17     		asrs	r5, r5, #31
 891              	.LVL168:
ARM GAS  C:\Users\ekatr\AppData\Local\Temp\ccGN8Gn8.s 			page 21


 892 00ec C5EBA303 		rsb	r3, r5, r3, asr #2
 893 00f0 03EB8303 		add	r3, r3, r3, lsl #2
 894 00f4 5D00     		lsls	r5, r3, #1
 895              	.LVL169:
 222:main.c        ****     current4 = current4 - current4%speed;
 896              		.loc 1 222 0
 897 00f6 84FB0023 		smull	r2, r3, r4, r0
 898 00fa C017     		asrs	r0, r0, #31
 899              	.LVL170:
 900 00fc C0EBA303 		rsb	r3, r0, r3, asr #2
 901 0100 03EB8303 		add	r3, r3, r3, lsl #2
 902 0104 5C00     		lsls	r4, r3, #1
 903              	.LVL171:
 196:main.c        ****     int speed = 10;
 904              		.loc 1 196 0
 905 0106 0023     		movs	r3, #0
 906 0108 0393     		str	r3, [sp, #12]
 907 010a 0293     		str	r3, [sp, #8]
 908 010c 0193     		str	r3, [sp, #4]
 909 010e 0093     		str	r3, [sp]
 223:main.c        ****     
 224:main.c        ****     while (fin_1+fin_2+fin_3+fin_4 != 4) {
 910              		.loc 1 224 0
 911 0110 36E0     		b	.L45
 912              	.LVL172:
 913              	.L54:
 225:main.c        ****         if (target1 < current1) {
 914              		.loc 1 225 0
 915 0112 5F45     		cmp	r7, fp
 916 0114 01DD     		ble	.L46
 226:main.c        ****             current1 -= speed;
 917              		.loc 1 226 0
 918 0116 0A3F     		subs	r7, r7, #10
 919              	.LVL173:
 920 0118 05E0     		b	.L47
 921              	.L46:
 227:main.c        ****         } else if (target1 > current1) {
 922              		.loc 1 227 0
 923 011a 5F45     		cmp	r7, fp
 924 011c 01DA     		bge	.L55
 228:main.c        ****             current1 += speed;
 925              		.loc 1 228 0
 926 011e 0A37     		adds	r7, r7, #10
 927              	.LVL174:
 928 0120 01E0     		b	.L47
 929              	.L55:
 229:main.c        ****         } else {
 230:main.c        ****             fin_1 = 1;
 930              		.loc 1 230 0
 931 0122 0123     		movs	r3, #1
 932 0124 0093     		str	r3, [sp]
 933              	.LVL175:
 934              	.L47:
 231:main.c        ****         }
 232:main.c        **** 
 233:main.c        ****         if (target2 < current2) {
 935              		.loc 1 233 0
ARM GAS  C:\Users\ekatr\AppData\Local\Temp\ccGN8Gn8.s 			page 22


 936 0126 5645     		cmp	r6, r10
 937 0128 01DD     		ble	.L48
 234:main.c        ****             current2 -= speed;
 938              		.loc 1 234 0
 939 012a 0A3E     		subs	r6, r6, #10
 940              	.LVL176:
 941 012c 05E0     		b	.L49
 942              	.L48:
 235:main.c        ****         } else if (target2 > current2) {
 943              		.loc 1 235 0
 944 012e 5645     		cmp	r6, r10
 945 0130 01DA     		bge	.L56
 236:main.c        ****             current2 += speed;
 946              		.loc 1 236 0
 947 0132 0A36     		adds	r6, r6, #10
 948              	.LVL177:
 949 0134 01E0     		b	.L49
 950              	.L56:
 237:main.c        ****         } else {
 238:main.c        ****             fin_2 = 1;
 951              		.loc 1 238 0
 952 0136 0123     		movs	r3, #1
 953 0138 0193     		str	r3, [sp, #4]
 954              	.LVL178:
 955              	.L49:
 239:main.c        ****         }
 240:main.c        ****         
 241:main.c        ****         if (target3 < current3) {
 956              		.loc 1 241 0
 957 013a 4D45     		cmp	r5, r9
 958 013c 01DD     		ble	.L50
 242:main.c        ****             current3 -= speed;
 959              		.loc 1 242 0
 960 013e 0A3D     		subs	r5, r5, #10
 961              	.LVL179:
 962 0140 05E0     		b	.L51
 963              	.L50:
 243:main.c        ****         } else if (target3 > current3) {
 964              		.loc 1 243 0
 965 0142 4D45     		cmp	r5, r9
 966 0144 01DA     		bge	.L57
 244:main.c        ****             current3 += speed;
 967              		.loc 1 244 0
 968 0146 0A35     		adds	r5, r5, #10
 969              	.LVL180:
 970 0148 01E0     		b	.L51
 971              	.L57:
 245:main.c        ****         } else {
 246:main.c        ****             fin_3 = 1;
 972              		.loc 1 246 0
 973 014a 0123     		movs	r3, #1
 974 014c 0293     		str	r3, [sp, #8]
 975              	.LVL181:
 976              	.L51:
 247:main.c        ****         }
 248:main.c        ****         
 249:main.c        ****         if (target4 < current4) {
ARM GAS  C:\Users\ekatr\AppData\Local\Temp\ccGN8Gn8.s 			page 23


 977              		.loc 1 249 0
 978 014e 4445     		cmp	r4, r8
 979 0150 01DD     		ble	.L52
 250:main.c        ****             current4 -= speed;
 980              		.loc 1 250 0
 981 0152 0A3C     		subs	r4, r4, #10
 982              	.LVL182:
 983 0154 05E0     		b	.L53
 984              	.L52:
 251:main.c        ****         } else if (target4 > current4) {
 985              		.loc 1 251 0
 986 0156 4445     		cmp	r4, r8
 987 0158 01DA     		bge	.L58
 252:main.c        ****             current4 += speed;
 988              		.loc 1 252 0
 989 015a 0A34     		adds	r4, r4, #10
 990              	.LVL183:
 991 015c 01E0     		b	.L53
 992              	.L58:
 253:main.c        ****         } else {
 254:main.c        ****             fin_4 = 1;
 993              		.loc 1 254 0
 994 015e 0123     		movs	r3, #1
 995 0160 0393     		str	r3, [sp, #12]
 996              	.L53:
 997              	.LVL184:
 255:main.c        ****         }
 256:main.c        ****         
 257:main.c        ****         PWM_1_WriteCompare(current1);
 998              		.loc 1 257 0
 999 0162 B8B2     		uxth	r0, r7
 1000 0164 FFF7FEFF 		bl	PWM_1_WriteCompare
 1001              	.LVL185:
 258:main.c        ****         PWM_2_WriteCompare(current2);
 1002              		.loc 1 258 0
 1003 0168 B0B2     		uxth	r0, r6
 1004 016a FFF7FEFF 		bl	PWM_2_WriteCompare
 1005              	.LVL186:
 259:main.c        ****         PWM_3_WriteCompare(current3);
 1006              		.loc 1 259 0
 1007 016e A8B2     		uxth	r0, r5
 1008 0170 FFF7FEFF 		bl	PWM_3_WriteCompare
 1009              	.LVL187:
 260:main.c        ****         PWM_4_WriteCompare(current4);
 1010              		.loc 1 260 0
 1011 0174 A0B2     		uxth	r0, r4
 1012 0176 FFF7FEFF 		bl	PWM_4_WriteCompare
 1013              	.LVL188:
 261:main.c        ****         
 262:main.c        ****         CyDelay(20);
 1014              		.loc 1 262 0
 1015 017a 1420     		movs	r0, #20
 1016 017c FFF7FEFF 		bl	CyDelay
 1017              	.LVL189:
 1018              	.L45:
 224:main.c        ****         if (target1 < current1) {
 1019              		.loc 1 224 0
ARM GAS  C:\Users\ekatr\AppData\Local\Temp\ccGN8Gn8.s 			page 24


 1020 0180 009B     		ldr	r3, [sp]
 1021 0182 019A     		ldr	r2, [sp, #4]
 1022 0184 1344     		add	r3, r3, r2
 1023 0186 029A     		ldr	r2, [sp, #8]
 1024 0188 1344     		add	r3, r3, r2
 1025 018a 039A     		ldr	r2, [sp, #12]
 1026 018c 1344     		add	r3, r3, r2
 1027 018e 042B     		cmp	r3, #4
 1028 0190 BFD1     		bne	.L54
 263:main.c        ****     }
 264:main.c        **** }
 1029              		.loc 1 264 0
 1030 0192 05B0     		add	sp, sp, #20
 1031              		.cfi_def_cfa_offset 36
 1032              	.LVL190:
 1033              		@ sp needed
 1034 0194 BDE8F08F 		pop	{r4, r5, r6, r7, r8, r9, r10, fp, pc}
 1035              	.LVL191:
 1036              	.L61:
 1037              		.align	2
 1038              	.L60:
 1039 0198 67666666 		.word	1717986919
 1040              		.cfi_endproc
 1041              	.LFE74:
 1042              		.size	move_to, .-move_to
 1043              		.global	dead_coords
 1044              		.global	board_coords
 1045              		.data
 1046              		.align	2
 1047              		.set	.LANCHOR0,. + 0
 1048              		.type	board_coords, %object
 1049              		.size	board_coords, 512
 1050              	board_coords:
 1051 0000 00000000 		.word	0
 1052 0004 00000000 		.word	0
 1053 0008 0000C042 		.word	1119879168
 1054 000c 0000A243 		.word	1134690304
 1055 0010 00000000 		.word	0
 1056 0014 00000000 		.word	0
 1057 0018 00009841 		.word	1100480512
 1058 001c 0000A243 		.word	1134690304
 1059 0020 00000000 		.word	0
 1060 0024 00000000 		.word	0
 1061 0028 000064C2 		.word	-1033633792
 1062 002c 0000A243 		.word	1134690304
 1063 0030 00000000 		.word	0
 1064 0034 00000000 		.word	0
 1065 0038 000007C3 		.word	-1022951424
 1066 003c 00808E43 		.word	1133412352
 1067 0040 00000743 		.word	1124532224
 1068 0044 00808E43 		.word	1133412352
 1069 0048 00000000 		.word	0
 1070 004c 00000000 		.word	0
 1071 0050 00006442 		.word	1113849856
 1072 0054 00808E43 		.word	1133412352
 1073 0058 00000000 		.word	0
 1074 005c 00000000 		.word	0
ARM GAS  C:\Users\ekatr\AppData\Local\Temp\ccGN8Gn8.s 			page 25


 1075 0060 000098C1 		.word	-1047003136
 1076 0064 00808E43 		.word	1133412352
 1077 0068 00000000 		.word	0
 1078 006c 00000000 		.word	0
 1079 0070 0000C0C2 		.word	-1027604480
 1080 0074 00808E43 		.word	1133412352
 1081 0078 00000000 		.word	0
 1082 007c 00000000 		.word	0
 1083 0080 00000000 		.word	0
 1084 0084 00000000 		.word	0
 1085 0088 0000C042 		.word	1119879168
 1086 008c 00007643 		.word	1131806720
 1087 0090 00000000 		.word	0
 1088 0094 00000000 		.word	0
 1089 0098 00009841 		.word	1100480512
 1090 009c 00007643 		.word	1131806720
 1091 00a0 00000000 		.word	0
 1092 00a4 00000000 		.word	0
 1093 00a8 000064C2 		.word	-1033633792
 1094 00ac 00007643 		.word	1131806720
 1095 00b0 00000000 		.word	0
 1096 00b4 00000000 		.word	0
 1097 00b8 000007C3 		.word	-1022951424
 1098 00bc 00007643 		.word	1131806720
 1099 00c0 00000743 		.word	1124532224
 1100 00c4 00005043 		.word	1129316352
 1101 00c8 00000000 		.word	0
 1102 00cc 00000000 		.word	0
 1103 00d0 00006442 		.word	1113849856
 1104 00d4 00005043 		.word	1129316352
 1105 00d8 00000000 		.word	0
 1106 00dc 00000000 		.word	0
 1107 00e0 000098C1 		.word	-1047003136
 1108 00e4 00005043 		.word	1129316352
 1109 00e8 00000000 		.word	0
 1110 00ec 00000000 		.word	0
 1111 00f0 0000C0C2 		.word	-1027604480
 1112 00f4 00005043 		.word	1129316352
 1113 00f8 00000000 		.word	0
 1114 00fc 00000000 		.word	0
 1115 0100 00000000 		.word	0
 1116 0104 00000000 		.word	0
 1117 0108 0000C042 		.word	1119879168
 1118 010c 00002A43 		.word	1126825984
 1119 0110 00000000 		.word	0
 1120 0114 00000000 		.word	0
 1121 0118 00009841 		.word	1100480512
 1122 011c 00002A43 		.word	1126825984
 1123 0120 00000000 		.word	0
 1124 0124 00000000 		.word	0
 1125 0128 000064C2 		.word	-1033633792
 1126 012c 00002A43 		.word	1126825984
 1127 0130 00000000 		.word	0
 1128 0134 00000000 		.word	0
 1129 0138 000007C3 		.word	-1022951424
 1130 013c 00002A43 		.word	1126825984
 1131 0140 00000743 		.word	1124532224
ARM GAS  C:\Users\ekatr\AppData\Local\Temp\ccGN8Gn8.s 			page 26


 1132 0144 00000443 		.word	1124335616
 1133 0148 00000000 		.word	0
 1134 014c 00000000 		.word	0
 1135 0150 00006442 		.word	1113849856
 1136 0154 00000443 		.word	1124335616
 1137 0158 00000000 		.word	0
 1138 015c 00000000 		.word	0
 1139 0160 000098C1 		.word	-1047003136
 1140 0164 00000443 		.word	1124335616
 1141 0168 00000000 		.word	0
 1142 016c 00000000 		.word	0
 1143 0170 0000C0C2 		.word	-1027604480
 1144 0174 00000443 		.word	1124335616
 1145 0178 00000000 		.word	0
 1146 017c 00000000 		.word	0
 1147 0180 00000000 		.word	0
 1148 0184 00000000 		.word	0
 1149 0188 0000C042 		.word	1119879168
 1150 018c 0000BE42 		.word	1119748096
 1151 0190 00000000 		.word	0
 1152 0194 00000000 		.word	0
 1153 0198 00009841 		.word	1100480512
 1154 019c 0000BE42 		.word	1119748096
 1155 01a0 00000000 		.word	0
 1156 01a4 00000000 		.word	0
 1157 01a8 000064C2 		.word	-1033633792
 1158 01ac 0000BE42 		.word	1119748096
 1159 01b0 00000000 		.word	0
 1160 01b4 00000000 		.word	0
 1161 01b8 000007C3 		.word	-1022951424
 1162 01bc 0000BE42 		.word	1119748096
 1163 01c0 00000743 		.word	1124532224
 1164 01c4 00006442 		.word	1113849856
 1165 01c8 00000000 		.word	0
 1166 01cc 00000000 		.word	0
 1167 01d0 00006442 		.word	1113849856
 1168 01d4 00006442 		.word	1113849856
 1169 01d8 00000000 		.word	0
 1170 01dc 00000000 		.word	0
 1171 01e0 000098C1 		.word	-1047003136
 1172 01e4 00006442 		.word	1113849856
 1173 01e8 00000000 		.word	0
 1174 01ec 00000000 		.word	0
 1175 01f0 0000C0C2 		.word	-1027604480
 1176 01f4 00006442 		.word	1113849856
 1177 01f8 00000000 		.word	0
 1178 01fc 00000000 		.word	0
 1179              		.type	dead_coords, %object
 1180              		.size	dead_coords, 192
 1181              	dead_coords:
 1182 0200 00007343 		.word	1131610112
 1183 0204 00808E43 		.word	1133412352
 1184 0208 00004F43 		.word	1129250816
 1185 020c 00808E43 		.word	1133412352
 1186 0210 00004FC3 		.word	-1018232832
 1187 0214 00808E43 		.word	1133412352
 1188 0218 000073C3 		.word	-1015873536
ARM GAS  C:\Users\ekatr\AppData\Local\Temp\ccGN8Gn8.s 			page 27


 1189 021c 00808E43 		.word	1133412352
 1190 0220 00007343 		.word	1131610112
 1191 0224 00007643 		.word	1131806720
 1192 0228 00004F43 		.word	1129250816
 1193 022c 00007643 		.word	1131806720
 1194 0230 00004FC3 		.word	-1018232832
 1195 0234 00007643 		.word	1131806720
 1196 0238 000073C3 		.word	-1015873536
 1197 023c 00007643 		.word	1131806720
 1198 0240 00007343 		.word	1131610112
 1199 0244 00005043 		.word	1129316352
 1200 0248 00004F43 		.word	1129250816
 1201 024c 00005043 		.word	1129316352
 1202 0250 00004FC3 		.word	-1018232832
 1203 0254 00005043 		.word	1129316352
 1204 0258 000073C3 		.word	-1015873536
 1205 025c 00005043 		.word	1129316352
 1206 0260 00007343 		.word	1131610112
 1207 0264 00002A43 		.word	1126825984
 1208 0268 00004F43 		.word	1129250816
 1209 026c 00002A43 		.word	1126825984
 1210 0270 00004FC3 		.word	-1018232832
 1211 0274 00002A43 		.word	1126825984
 1212 0278 000073C3 		.word	-1015873536
 1213 027c 00002A43 		.word	1126825984
 1214 0280 00007343 		.word	1131610112
 1215 0284 00000443 		.word	1124335616
 1216 0288 00004F43 		.word	1129250816
 1217 028c 00000443 		.word	1124335616
 1218 0290 00004FC3 		.word	-1018232832
 1219 0294 00000443 		.word	1124335616
 1220 0298 000073C3 		.word	-1015873536
 1221 029c 00000443 		.word	1124335616
 1222 02a0 00007343 		.word	1131610112
 1223 02a4 0000BE42 		.word	1119748096
 1224 02a8 00004F43 		.word	1129250816
 1225 02ac 0000BE42 		.word	1119748096
 1226 02b0 00004FC3 		.word	-1018232832
 1227 02b4 0000BE42 		.word	1119748096
 1228 02b8 000073C3 		.word	-1015873536
 1229 02bc 0000BE42 		.word	1119748096
 1230              		.bss
 1231              		.align	2
 1232              		.set	.LANCHOR1,. + 0
 1233              		.type	coords.7372, %object
 1234              		.size	coords.7372, 12
 1235              	coords.7372:
 1236 0000 00000000 		.space	12
 1236      00000000 
 1236      00000000 
 1237              		.type	angles.7376, %object
 1238              		.size	angles.7376, 16
 1239              	angles.7376:
 1240 000c 00000000 		.space	16
 1240      00000000 
 1240      00000000 
 1240      00000000 
ARM GAS  C:\Users\ekatr\AppData\Local\Temp\ccGN8Gn8.s 			page 28


 1241              		.text
 1242              	.Letext0:
 1243              		.file 2 "c:\\program files (x86)\\cypress\\psoc creator\\4.4\\psoc creator\\import\\gnu\\arm\\5.4.
 1244              		.file 3 "c:\\program files (x86)\\cypress\\psoc creator\\4.4\\psoc creator\\import\\gnu\\arm\\5.4.
 1245              		.file 4 "Generated_Source\\PSoC5/core_cm3.h"
 1246              		.file 5 "c:\\program files (x86)\\cypress\\psoc creator\\4.4\\psoc creator\\import\\gnu\\arm\\5.4.
 1247              		.file 6 "Generated_Source\\PSoC5/PWM_1.h"
 1248              		.file 7 "Generated_Source\\PSoC5/PWM_2.h"
 1249              		.file 8 "Generated_Source\\PSoC5/PWM_3.h"
 1250              		.file 9 "Generated_Source\\PSoC5/PWM_4.h"
 1251              		.file 10 "Generated_Source\\PSoC5/UART_1.h"
 1252              		.file 11 "Generated_Source\\PSoC5/SPI.h"
 1253              		.file 12 "Generated_Source\\PSoC5/CyLib.h"