(iCheckers.board
Board
p0
(dp1
S'white_kings'
p2
I0
sS'white_left'
p3
I12
sS'red_left'
p4
I12
sS'board'
p5
(lp6
(lp7
I0
a(iCheckers.piece
Piece
p8
(dp9
S'king'
p10
I00
sS'direction'
p11
I1
sS'colour'
p12
(I255
I255
I255
tp13
sS'y'
p14
I37
sS'x'
p15
I112
sS'col'
p16
I1
sS'row'
p17
I0
sbaI0
a(iCheckers.piece
Piece
p18
(dp19
g10
I00
sg11
I1
sg12
g13
sg14
I37
sg15
I262
sg16
I3
sg17
I0
sbaI0
a(iCheckers.piece
Piece
p20
(dp21
g10
I00
sg11
I1
sg12
g13
sg14
I37
sg15
I412
sg16
I5
sg17
I0
sbaI0
a(iCheckers.piece
Piece
p22
(dp23
g10
I00
sg11
I1
sg12
g13
sg14
I37
sg15
I562
sg16
I7
sg17
I0
sbaa(lp24
(iCheckers.piece
Piece
p25
(dp26
g10
I00
sg11
I1
sg12
g13
sg14
I112
sg15
I37
sg16
I0
sg17
I1
sbaI0
a(iCheckers.piece
Piece
p27
(dp28
g10
I00
sg11
I1
sg12
g13
sg14
I112
sg15
I187
sg16
I2
sg17
I1
sbaI0
a(iCheckers.piece
Piece
p29
(dp30
g10
I00
sg11
I1
sg12
g13
sg14
I112
sg15
I337
sg16
I4
sg17
I1
sbaI0
a(iCheckers.piece
Piece
p31
(dp32
g10
I00
sg11
I1
sg12
g13
sg14
I112
sg15
I487
sg16
I6
sg17
I1
sbaI0
aa(lp33
I0
a(iCheckers.piece
Piece
p34
(dp35
g10
I00
sg11
I1
sg12
g13
sg14
I187
sg15
I112
sg16
I1
sg17
I2
sbaI0
a(iCheckers.piece
Piece
p36
(dp37
g10
I00
sg11
I1
sg12
g13
sg14
I187
sg15
I262
sg16
I3
sg17
I2
sbaI0
a(iCheckers.piece
Piece
p38
(dp39
g10
I00
sg11
I1
sg12
g13
sg14
I187
sg15
I412
sg16
I5
sg17
I2
sbaI0
a(iCheckers.piece
Piece
p40
(dp41
g10
I00
sg11
I1
sg12
g13
sg14
I187
sg15
I562
sg16
I7
sg17
I2
sbaa(lp42
I0
aI0
aI0
aI0
aI0
aI0
aI0
aI0
aa(lp43
I0
aI0
aI0
aI0
aI0
aI0
aI0
aI0
aa(lp44
(iCheckers.piece
Piece
p45
(dp46
g10
I00
sg11
I-1
sg12
(I255
I0
I0
tp47
sg14
I412
sg15
I37
sg16
I0
sg17
I5
sbaI0
a(iCheckers.piece
Piece
p48
(dp49
g10
I00
sg11
I-1
sg12
g47
sg14
I412
sg15
I187
sg16
I2
sg17
I5
sbaI0
a(iCheckers.piece
Piece
p50
(dp51
g10
I00
sg11
I-1
sg12
g47
sg14
I412
sg15
I337
sg16
I4
sg17
I5
sbaI0
a(iCheckers.piece
Piece
p52
(dp53
g10
I00
sg11
I-1
sg12
g47
sg14
I412
sg15
I487
sg16
I6
sg17
I5
sbaI0
aa(lp54
I0
a(iCheckers.piece
Piece
p55
(dp56
g10
I00
sg11
I-1
sg12
g47
sg14
I487
sg15
I112
sg16
I1
sg17
I6
sbaI0
a(iCheckers.piece
Piece
p57
(dp58
g10
I00
sg11
I-1
sg12
g47
sg14
I487
sg15
I262
sg16
I3
sg17
I6
sbaI0
a(iCheckers.piece
Piece
p59
(dp60
g10
I00
sg11
I-1
sg12
g47
sg14
I487
sg15
I412
sg16
I5
sg17
I6
sbaI0
a(iCheckers.piece
Piece
p61
(dp62
g10
I00
sg11
I-1
sg12
g47
sg14
I487
sg15
I562
sg16
I7
sg17
I6
sbaa(lp63
(iCheckers.piece
Piece
p64
(dp65
g10
I00
sg11
I-1
sg12
g47
sg14
I562
sg15
I37
sg16
I0
sg17
I7
sbaI0
a(iCheckers.piece
Piece
p66
(dp67
g10
I00
sg11
I-1
sg12
g47
sg14
I562
sg15
I187
sg16
I2
sg17
I7
sbaI0
a(iCheckers.piece
Piece
p68
(dp69
g10
I00
sg11
I-1
sg12
g47
sg14
I562
sg15
I337
sg16
I4
sg17
I7
sbaI0
a(iCheckers.piece
Piece
p70
(dp71
g10
I00
sg11
I-1
sg12
g47
sg14
I562
sg15
I487
sg16
I6
sg17
I7
sbaI0
aasS'red_kings'
p72
I0
sb.